target datalayout = "e-m:e-p270:32:32-p271:32:32-p272:64:64-i64:64-i128:128-f80:128-n8:16:32:64-S128"
target triple = "x86_64-pc-linux-gnu"

%"class.casadi::MXNode" = type { %"class.casadi::SharedObjectInternal", i64, %"class.std::vector", %"class.casadi::Sparsity" }
%"class.casadi::SharedObjectInternal" = type { %"class.casadi::GenericSharedInternal", i64 }
%"class.casadi::GenericSharedInternal" = type { ptr, ptr }
%"class.std::vector" = type { %"struct.std::_Vector_base" }
%"struct.std::_Vector_base" = type { %"struct.std::_Vector_base<casadi::MX, std::allocator<casadi::MX>>::_Vector_impl" }
%"struct.std::_Vector_base<casadi::MX, std::allocator<casadi::MX>>::_Vector_impl" = type { %"struct.std::_Vector_base<casadi::MX, std::allocator<casadi::MX>>::_Vector_impl_data" }
%"struct.std::_Vector_base<casadi::MX, std::allocator<casadi::MX>>::_Vector_impl_data" = type { ptr, ptr, ptr }
%"class.casadi::Sparsity" = type { %"class.casadi::SharedObject" }
%"class.casadi::SharedObject" = type { %"class.casadi::GenericShared" }
%"class.casadi::GenericShared" = type { ptr }
%"class.casadi::MX" = type { %"class.casadi::SharedObject" }
%"struct.std::pair" = type { i64, i64 }
%"struct.std::_Vector_base.11" = type { %"struct.std::_Vector_base<std::vector<casadi::MX>, std::allocator<std::vector<casadi::MX>>>::_Vector_impl" }
%"struct.std::_Vector_base<std::vector<casadi::MX>, std::allocator<std::vector<casadi::MX>>>::_Vector_impl" = type { %"struct.std::_Vector_base<std::vector<casadi::MX>, std::allocator<std::vector<casadi::MX>>>::_Vector_impl_data" }
%"struct.std::_Vector_base<std::vector<casadi::MX>, std::allocator<std::vector<casadi::MX>>>::_Vector_impl_data" = type { ptr, ptr, ptr }

; Function Attrs: inlinehint mustprogress uwtable
define linkonce_odr hidden noundef nonnull align 8 dereferenceable(8) ptr @_ZN6casadi12SharedObjectaSERKS0_(ptr noundef nonnull align 8 dereferenceable(8) %0, ptr noundef nonnull align 8 dereferenceable(8) %1) #6 comdat align 2 {
  %3 = alloca ptr, align 8
  %4 = alloca ptr, align 8
  store ptr %0, ptr %3, align 8, !tbaa !130
  store ptr %1, ptr %4, align 8, !tbaa !130
  %5 = load ptr, ptr %3, align 8
  %6 = load ptr, ptr %4, align 8, !tbaa !130
  %7 = call noundef nonnull align 8 dereferenceable(8) ptr @_ZN6casadi13GenericSharedINS_12SharedObjectENS_20SharedObjectInternalEEaSERKS3_(ptr noundef nonnull align 8 dereferenceable(8) %5, ptr noundef nonnull align 8 dereferenceable(8) %6)
  ret ptr %5
}

; Function Attrs: mustprogress nounwind uwtable
define linkonce_odr hidden noundef nonnull align 8 dereferenceable(8) ptr @_ZNK6casadi6MXNode8sparsityEv(ptr noundef nonnull align 8 dereferenceable(64) %0) #7 comdat align 2 {
  %2 = alloca ptr, align 8
  store ptr %0, ptr %2, align 8, !tbaa !49
  %3 = load ptr, ptr %2, align 8
  %4 = getelementptr inbounds nuw %"class.casadi::MXNode", ptr %3, i32 0, i32 3
  ret ptr %4
}

; Function Attrs: inlinehint mustprogress uwtable
define linkonce_odr hidden noundef nonnull align 8 dereferenceable(8) ptr @_ZN6casadi2MXaSERKS0_(ptr noundef nonnull align 8 dereferenceable(8) %0, ptr noundef nonnull align 8 dereferenceable(8) %1) #6 comdat align 2 {
  %3 = alloca ptr, align 8
  %4 = alloca ptr, align 8
  store ptr %0, ptr %3, align 8, !tbaa !8
  store ptr %1, ptr %4, align 8, !tbaa !8
  %5 = load ptr, ptr %3, align 8
  %6 = load ptr, ptr %4, align 8, !tbaa !8
  %7 = call noundef nonnull align 8 dereferenceable(8) ptr @_ZN6casadi12SharedObjectaSERKS0_(ptr noundef nonnull align 8 dereferenceable(8) %5, ptr noundef nonnull align 8 dereferenceable(8) %6)
  ret ptr %5
}

; Function Attrs: mustprogress nounwind uwtable
define linkonce_odr hidden noundef nonnull align 8 dereferenceable(8) ptr @_ZNSt6vectorIN6casadi2MXESaIS1_EEixEm(ptr noundef nonnull align 8 dereferenceable(24) %0, i64 noundef %1) #7 comdat align 2 {
  %3 = alloca ptr, align 8
  %4 = alloca i64, align 8
  store ptr %0, ptr %3, align 8, !tbaa !53
  store i64 %1, ptr %4, align 8, !tbaa !22
  %5 = load ptr, ptr %3, align 8
  %6 = getelementptr inbounds nuw %"struct.std::_Vector_base", ptr %5, i32 0, i32 0
  %7 = getelementptr inbounds nuw %"struct.std::_Vector_base<casadi::MX, std::allocator<casadi::MX>>::_Vector_impl_data", ptr %6, i32 0, i32 0
  %8 = load ptr, ptr %7, align 8, !tbaa !58
  %9 = load i64, ptr %4, align 8, !tbaa !22
  %10 = getelementptr inbounds nuw %"class.casadi::MX", ptr %8, i64 %9
  ret ptr %10
}

; Function Attrs: mustprogress nounwind uwtable
define linkonce_odr hidden noundef nonnull align 8 dereferenceable(24) ptr @_ZNSt6vectorIS_IN6casadi2MXESaIS1_EESaIS3_EEixEm(ptr noundef nonnull align 8 dereferenceable(24) %0, i64 noundef %1) #7 comdat align 2 {
  %3 = alloca ptr, align 8
  %4 = alloca i64, align 8
  store ptr %0, ptr %3, align 8, !tbaa !60
  store i64 %1, ptr %4, align 8, !tbaa !22
  %5 = load ptr, ptr %3, align 8
  %6 = getelementptr inbounds nuw %"struct.std::_Vector_base.11", ptr %5, i32 0, i32 0
  %7 = getelementptr inbounds nuw %"struct.std::_Vector_base<std::vector<casadi::MX>, std::allocator<std::vector<casadi::MX>>>::_Vector_impl_data", ptr %6, i32 0, i32 0
  %8 = load ptr, ptr %7, align 8, !tbaa !66
  %9 = load i64, ptr %4, align 8, !tbaa !22
  %10 = getelementptr inbounds nuw %"class.std::vector", ptr %8, i64 %9
  ret ptr %10
}

; Function Attrs: inlinehint mustprogress uwtable
define linkonce_odr hidden void @_ZN6casadi7reshapeERKNS_2MXESt4pairIxxE(ptr dead_on_unwind noalias writable sret(%"class.casadi::MX") align 8 %0, ptr noundef nonnull align 8 dereferenceable(8) %1, i64 %2, i64 %3) #6 comdat {
  %5 = alloca ptr, align 8
  %6 = alloca %"struct.std::pair", align 8
  %7 = alloca ptr, align 8
  store ptr %0, ptr %5, align 8
  %8 = getelementptr inbounds nuw { i64, i64 }, ptr %6, i32 0, i32 0
  store i64 %2, ptr %8, align 8
  %9 = getelementptr inbounds nuw { i64, i64 }, ptr %6, i32 0, i32 1
  store i64 %3, ptr %9, align 8
  store ptr %1, ptr %7, align 8, !tbaa !8
  %10 = load ptr, ptr %7, align 8, !tbaa !8
  %11 = getelementptr inbounds nuw %"struct.std::pair", ptr %6, i32 0, i32 0
  %12 = load i64, ptr %11, align 8, !tbaa !55
  %13 = getelementptr inbounds nuw %"struct.std::pair", ptr %6, i32 0, i32 1
  %14 = load i64, ptr %13, align 8, !tbaa !57
  call void @_ZN6casadi2MX7reshapeERKS0_xx(ptr dead_on_unwind writable sret(%"class.casadi::MX") align 8 %0, ptr noundef nonnull align 8 dereferenceable(8) %10, i64 noundef %12, i64 noundef %14)
  ret void
}

; Function Attrs: mustprogress uwtable
define linkonce_odr hidden { i64, i64 } @_ZNK6casadi6MXNode4sizeEv(ptr noundef nonnull align 8 dereferenceable(64) %0) #4 comdat align 2 {
  %2 = alloca %"struct.std::pair", align 8
  %3 = alloca ptr, align 8
  store ptr %0, ptr %3, align 8, !tbaa !49
  %4 = load ptr, ptr %3, align 8
  %5 = call noundef nonnull align 8 dereferenceable(8) ptr @_ZNK6casadi6MXNode8sparsityEv(ptr noundef nonnull align 8 dereferenceable(64) %4)
  %6 = call { i64, i64 } @_ZNK6casadi8Sparsity4sizeEv(ptr noundef nonnull align 8 dereferenceable(8) %5)
  %7 = getelementptr inbounds nuw { i64, i64 }, ptr %2, i32 0, i32 0
  %8 = extractvalue { i64, i64 } %6, 0
  store i64 %8, ptr %7, align 8
  %9 = getelementptr inbounds nuw { i64, i64 }, ptr %2, i32 0, i32 1
  %10 = extractvalue { i64, i64 } %6, 1
  store i64 %10, ptr %9, align 8
  %11 = load { i64, i64 }, ptr %2, align 8
  ret { i64, i64 } %11
}

; Function Attrs: mustprogress nounwind uwtable
define linkonce_odr hidden noundef nonnull align 8 dereferenceable(8) ptr @_ZNKSt6vectorIN6casadi2MXESaIS1_EEixEm(ptr noundef nonnull align 8 dereferenceable(24) %0, i64 noundef %1) #7 comdat align 2 {
  %3 = alloca ptr, align 8
  %4 = alloca i64, align 8
  store ptr %0, ptr %3, align 8, !tbaa !53
  store i64 %1, ptr %4, align 8, !tbaa !22
  %5 = load ptr, ptr %3, align 8
  %6 = getelementptr inbounds nuw %"struct.std::_Vector_base", ptr %5, i32 0, i32 0
  %7 = getelementptr inbounds nuw %"struct.std::_Vector_base<casadi::MX, std::allocator<casadi::MX>>::_Vector_impl_data", ptr %6, i32 0, i32 0
  %8 = load ptr, ptr %7, align 8, !tbaa !58
  %9 = load i64, ptr %4, align 8, !tbaa !22
  %10 = getelementptr inbounds nuw %"class.casadi::MX", ptr %8, i64 %9
  ret ptr %10
}

; Function Attrs: mustprogress nounwind uwtable
define linkonce_odr hidden noundef nonnull align 8 dereferenceable(24) ptr @_ZNKSt6vectorIS_IN6casadi2MXESaIS1_EESaIS3_EEixEm(ptr noundef nonnull align 8 dereferenceable(24) %0, i64 noundef %1) #7 comdat align 2 {
  %3 = alloca ptr, align 8
  %4 = alloca i64, align 8
  store ptr %0, ptr %3, align 8, !tbaa !60
  store i64 %1, ptr %4, align 8, !tbaa !22
  %5 = load ptr, ptr %3, align 8
  %6 = getelementptr inbounds nuw %"struct.std::_Vector_base.11", ptr %5, i32 0, i32 0
  %7 = getelementptr inbounds nuw %"struct.std::_Vector_base<std::vector<casadi::MX>, std::allocator<std::vector<casadi::MX>>>::_Vector_impl_data", ptr %6, i32 0, i32 0
  %8 = load ptr, ptr %7, align 8, !tbaa !66
  %9 = load i64, ptr %4, align 8, !tbaa !22
  %10 = getelementptr inbounds nuw %"class.std::vector", ptr %8, i64 %9
  ret ptr %10
}

; Function Attrs: mustprogress nounwind uwtable
define linkonce_odr hidden noundef i64 @_ZNKSt6vectorIS_IN6casadi2MXESaIS1_EESaIS3_EE4sizeEv(ptr noundef nonnull align 8 dereferenceable(24) %0) #7 comdat align 2 {
  %2 = alloca ptr, align 8
  store ptr %0, ptr %2, align 8, !tbaa !60
  %3 = load ptr, ptr %2, align 8
  %4 = getelementptr inbounds nuw %"struct.std::_Vector_base.11", ptr %3, i32 0, i32 0
  %5 = getelementptr inbounds nuw %"struct.std::_Vector_base<std::vector<casadi::MX>, std::allocator<std::vector<casadi::MX>>>::_Vector_impl_data", ptr %4, i32 0, i32 1
  %6 = load ptr, ptr %5, align 8, !tbaa !64
  %7 = getelementptr inbounds nuw %"struct.std::_Vector_base.11", ptr %3, i32 0, i32 0
  %8 = getelementptr inbounds nuw %"struct.std::_Vector_base<std::vector<casadi::MX>, std::allocator<std::vector<casadi::MX>>>::_Vector_impl_data", ptr %7, i32 0, i32 0
  %9 = load ptr, ptr %8, align 8, !tbaa !66
  %10 = ptrtoint ptr %6 to i64
  %11 = ptrtoint ptr %9 to i64
  %12 = sub i64 %10, %11
  %13 = sdiv exact i64 %12, 24
  ret i64 %13
}

; Function Attrs: mustprogress uwtable
define void @_ZNK6casadi7Reshape10ad_forwardERKSt6vectorIS1_INS_2MXESaIS2_EESaIS4_EERS6_(ptr noundef nonnull align 8 dereferenceable(64) %0, ptr noundef nonnull align 8 dereferenceable(24) %1, ptr noundef nonnull align 8 dereferenceable(24) %2) unnamed_addr #4 align 2 personality ptr @__gxx_personality_v0 {
  %4 = alloca ptr, align 8
  %5 = alloca ptr, align 8
  %6 = alloca ptr, align 8
  %7 = alloca i64, align 8
  %8 = alloca %"class.casadi::MX", align 8
  %9 = alloca %"struct.std::pair", align 8
  %10 = alloca ptr, align 8
  %11 = alloca i32, align 4
  store ptr %0, ptr %4, align 8, !tbaa !3
  store ptr %1, ptr %5, align 8, !tbaa !60
  store ptr %2, ptr %6, align 8, !tbaa !60
  %12 = load ptr, ptr %4, align 8
  call void @llvm.lifetime.start.p0(i64 8, ptr %7) #3
  store i64 0, ptr %7, align 8, !tbaa !51
  br label %13

13:                                               ; preds = %39, %3
  %14 = load i64, ptr %7, align 8, !tbaa !51
  %15 = load ptr, ptr %6, align 8, !tbaa !60
  %16 = call noundef i64 @_ZNKSt6vectorIS_IN6casadi2MXESaIS1_EESaIS3_EE4sizeEv(ptr noundef nonnull align 8 dereferenceable(24) %15) #3
  %17 = icmp ult i64 %14, %16
  br i1 %17, label %19, label %18

18:                                               ; preds = %13
  call void @llvm.lifetime.end.p0(i64 8, ptr %7) #3
  br label %46

19:                                               ; preds = %13
  call void @llvm.lifetime.start.p0(i64 8, ptr %8) #3
  %20 = load ptr, ptr %5, align 8, !tbaa !60
  %21 = load i64, ptr %7, align 8, !tbaa !51
  %22 = call noundef nonnull align 8 dereferenceable(24) ptr @_ZNKSt6vectorIS_IN6casadi2MXESaIS1_EESaIS3_EEixEm(ptr noundef nonnull align 8 dereferenceable(24) %20, i64 noundef %21) #3
  %23 = call noundef nonnull align 8 dereferenceable(8) ptr @_ZNKSt6vectorIN6casadi2MXESaIS1_EEixEm(ptr noundef nonnull align 8 dereferenceable(24) %22, i64 noundef 0) #3
  %24 = call { i64, i64 } @_ZNK6casadi6MXNode4sizeEv(ptr noundef nonnull align 8 dereferenceable(64) %12)
  %25 = getelementptr inbounds nuw { i64, i64 }, ptr %9, i32 0, i32 0
  %26 = extractvalue { i64, i64 } %24, 0
  store i64 %26, ptr %25, align 8
  %27 = getelementptr inbounds nuw { i64, i64 }, ptr %9, i32 0, i32 1
  %28 = extractvalue { i64, i64 } %24, 1
  store i64 %28, ptr %27, align 8
  %29 = getelementptr inbounds nuw { i64, i64 }, ptr %9, i32 0, i32 0
  %30 = load i64, ptr %29, align 8
  %31 = getelementptr inbounds nuw { i64, i64 }, ptr %9, i32 0, i32 1
  %32 = load i64, ptr %31, align 8
  call void @_ZN6casadi7reshapeERKNS_2MXESt4pairIxxE(ptr dead_on_unwind writable sret(%"class.casadi::MX") align 8 %8, ptr noundef nonnull align 8 dereferenceable(8) %23, i64 %30, i64 %32)
  %33 = load ptr, ptr %6, align 8, !tbaa !60
  %34 = load i64, ptr %7, align 8, !tbaa !51
  %35 = call noundef nonnull align 8 dereferenceable(24) ptr @_ZNSt6vectorIS_IN6casadi2MXESaIS1_EESaIS3_EEixEm(ptr noundef nonnull align 8 dereferenceable(24) %33, i64 noundef %34) #3
  %36 = call noundef nonnull align 8 dereferenceable(8) ptr @_ZNSt6vectorIN6casadi2MXESaIS1_EEixEm(ptr noundef nonnull align 8 dereferenceable(24) %35, i64 noundef 0) #3
  %37 = invoke noundef nonnull align 8 dereferenceable(8) ptr @_ZN6casadi2MXaSERKS0_(ptr noundef nonnull align 8 dereferenceable(8) %36, ptr noundef nonnull align 8 dereferenceable(8) %8)
          to label %38 unwind label %42

38:                                               ; preds = %19
  call void @_ZN6casadi2MXD1Ev(ptr noundef nonnull align 8 dereferenceable(8) %8) #3
  call void @llvm.lifetime.end.p0(i64 8, ptr %8) #3
  br label %39

39:                                               ; preds = %38
  %40 = load i64, ptr %7, align 8, !tbaa !51
  %41 = add nsw i64 %40, 1
  store i64 %41, ptr %7, align 8, !tbaa !51
  br label %13, !llvm.loop !62

42:                                               ; preds = %19
  %43 = landingpad { ptr, i32 }
          cleanup
  %44 = extractvalue { ptr, i32 } %43, 0
  store ptr %44, ptr %10, align 8
  %45 = extractvalue { ptr, i32 } %43, 1
  store i32 %45, ptr %11, align 4
  call void @_ZN6casadi2MXD1Ev(ptr noundef nonnull align 8 dereferenceable(8) %8) #3
  call void @llvm.lifetime.end.p0(i64 8, ptr %8) #3
  call void @llvm.lifetime.end.p0(i64 8, ptr %7) #3
  br label %47

46:                                               ; preds = %18
  ret void

47:                                               ; preds = %42
  %48 = load ptr, ptr %10, align 8
  %49 = load i32, ptr %11, align 4
  %50 = insertvalue { ptr, i32 } poison, ptr %48, 0
  %51 = insertvalue { ptr, i32 } %50, i32 %49, 1
  resume { ptr, i32 } %51
}