; Function Attrs: mustprogress uwtable
define void @_ZNK6casadi7Reshape10ad_forwardERKSt6vectorIS1_INS_2MXESaIS2_EESaIS4_EERS6_(ptr noundef nonnull align 8 dereferenceable(64) %0, ptr noundef nonnull readonly align 8 captures(none) dereferenceable(24) %1, ptr noundef nonnull readonly align 8 captures(none) dereferenceable(24) %2) unnamed_addr #3 align 2 personality ptr @__gxx_personality_v0 {
  %4 = alloca %"class.casadi::MX", align 8
  %5 = getelementptr inbounds nuw i8, ptr %2, i64 8
  %6 = load ptr, ptr %5, align 8, !tbaa !48
  %7 = load ptr, ptr %2, align 8, !tbaa !51
  %.not = icmp eq ptr %6, %7
  br i1 %.not, label %._crit_edge, label %.lr.ph

.lr.ph:                                           ; preds = %3
  %8 = getelementptr inbounds nuw i8, ptr %0, i64 56
  br label %9

._crit_edge:                                      ; preds = %_ZN6casadi2MXaSERKS0_.exit, %3
  ret void

9:                                                ; preds = %.lr.ph, %_ZN6casadi2MXaSERKS0_.exit
  %.09 = phi i64 [ 0, %.lr.ph ], [ %20, %_ZN6casadi2MXaSERKS0_.exit ]
  call void @llvm.lifetime.start.p0(i64 8, ptr nonnull %4) #20
  %10 = load ptr, ptr %1, align 8, !tbaa !51
  %11 = getelementptr inbounds nuw %"class.std::vector", ptr %10, i64 %.09
  %12 = load ptr, ptr %11, align 8, !tbaa !38
  %13 = call { i64, i64 } @_ZNK6casadi8Sparsity4sizeEv(ptr noundef nonnull align 8 dereferenceable(8) %8)
  %14 = extractvalue { i64, i64 } %13, 0
  %15 = extractvalue { i64, i64 } %13, 1
  call void @_ZN6casadi2MX7reshapeERKS0_xx(ptr dead_on_unwind nonnull writable sret(%"class.casadi::MX") align 8 %4, ptr noundef nonnull align 8 dereferenceable(8) %12, i64 noundef %14, i64 noundef %15)
  %16 = load ptr, ptr %2, align 8, !tbaa !51
  %17 = getelementptr inbounds nuw %"class.std::vector", ptr %16, i64 %.09
  %18 = load ptr, ptr %17, align 8, !tbaa !38
  %19 = invoke noundef nonnull align 8 dereferenceable(8) ptr @_ZN6casadi13GenericSharedINS_12SharedObjectENS_20SharedObjectInternalEEaSERKS3_(ptr noundef nonnull align 8 dereferenceable(8) %18, ptr noundef nonnull align 8 dereferenceable(8) %4)
          to label %_ZN6casadi2MXaSERKS0_.exit unwind label %28

_ZN6casadi2MXaSERKS0_.exit:                       ; preds = %9
  call void @_ZN6casadi2MXD1Ev(ptr noundef nonnull align 8 dereferenceable(8) %4) #20
  call void @llvm.lifetime.end.p0(i64 8, ptr nonnull %4) #20
  %20 = add nuw nsw i64 %.09, 1
  %21 = load ptr, ptr %5, align 8, !tbaa !48
  %22 = load ptr, ptr %2, align 8, !tbaa !51
  %23 = ptrtoint ptr %21 to i64
  %24 = ptrtoint ptr %22 to i64
  %25 = sub i64 %23, %24
  %26 = sdiv exact i64 %25, 24
  %27 = icmp ult i64 %20, %26
  br i1 %27, label %9, label %._crit_edge, !llvm.loop !52

28:                                               ; preds = %9
  %29 = landingpad { ptr, i32 }
          cleanup
  call void @_ZN6casadi2MXD1Ev(ptr noundef nonnull align 8 dereferenceable(8) %4) #20
  call void @llvm.lifetime.end.p0(i64 8, ptr nonnull %4) #20
  resume { ptr, i32 } %29
}